; ModuleID = 'source-C-CXX/33/1537.cpp'
source_filename = "source-C-CXX/33/1537.cpp"
target datalayout = "e-m:e-p270:32:32-p271:32:32-p272:64:64-i64:64-f80:128-n8:16:32:64-S128"
target triple = "x86_64-pc-linux-gnu"

%"class.std::ios_base::Init" = type { i8 }
%"class.std::basic_istream" = type { i32 (...)**, i64, %"class.std::basic_ios" }
%"class.std::basic_ios" = type { %"class.std::ios_base", %"class.std::basic_ostream"*, i8, i8, %"class.std::basic_streambuf"*, %"class.std::ctype"*, %"class.std::num_put"*, %"class.std::num_get"* }
%"class.std::ios_base" = type { i32 (...)**, i64, i64, i32, i32, i32, %"struct.std::ios_base::_Callback_list"*, %"struct.std::ios_base::_Words", [8 x %"struct.std::ios_base::_Words"], i32, %"struct.std::ios_base::_Words"*, %"class.std::locale" }
%"struct.std::ios_base::_Callback_list" = type { %"struct.std::ios_base::_Callback_list"*, void (i32, %"class.std::ios_base"*, i32)*, i32, i32 }
%"struct.std::ios_base::_Words" = type { i8*, i64 }
%"class.std::locale" = type { %"class.std::locale::_Impl"* }
%"class.std::locale::_Impl" = type { i32, %"class.std::locale::facet"**, i64, %"class.std::locale::facet"**, i8** }
%"class.std::locale::facet" = type <{ i32 (...)**, i32, [4 x i8] }>
%"class.std::basic_ostream" = type { i32 (...)**, %"class.std::basic_ios" }
%"class.std::basic_streambuf" = type { i32 (...)**, i8*, i8*, i8*, i8*, i8*, i8*, %"class.std::locale" }
%"class.std::ctype" = type <{ %"class.std::locale::facet.base", [4 x i8], %struct.__locale_struct*, i8, [7 x i8], i32*, i32*, i16*, i8, [256 x i8], [256 x i8], i8, [6 x i8] }>
%"class.std::locale::facet.base" = type <{ i32 (...)**, i32 }>
%struct.__locale_struct = type { [13 x %struct.__locale_data*], i16*, i32*, i32*, [13 x i8*] }
%struct.__locale_data = type opaque
%"class.std::num_put" = type { %"class.std::locale::facet.base", [4 x i8] }
%"class.std::num_get" = type { %"class.std::locale::facet.base", [4 x i8] }

@_ZStL8__ioinit = internal global %"class.std::ios_base::Init" zeroinitializer, align 1
@__dso_handle = external hidden global i8
@_ZSt3cin = external global %"class.std::basic_istream", align 8
@_ZSt4cout = external global %"class.std::basic_ostream", align 8
@.str = private unnamed_addr constant [4 x i8] c"/2=\00", align 1
@.str.1 = private unnamed_addr constant [6 x i8] c"*3+1=\00", align 1
@.str.2 = private unnamed_addr constant [4 x i8] c"End\00", align 1
@llvm.global_ctors = appending global [1 x { i32, void ()*, i8* }] [{ i32, void ()*, i8* } { i32 65535, void ()* @_GLOBAL__sub_I_1537.cpp, i8* null }]

declare void @_ZNSt8ios_base4InitC1Ev(%"class.std::ios_base::Init"* nonnull align 1 dereferenceable(1)) unnamed_addr #0

; Function Attrs: nounwind
declare void @_ZNSt8ios_base4InitD1Ev(%"class.std::ios_base::Init"* nonnull align 1 dereferenceable(1)) unnamed_addr #1

; Function Attrs: nofree nounwind
declare i32 @__cxa_atexit(void (i8*)*, i8*, i8*) local_unnamed_addr #2

; Function Attrs: mustprogress norecurse sspstrong uwtable
define dso_local i32 @main() local_unnamed_addr #3 {
  %1 = alloca i32, align 4
  %2 = bitcast i32* %1 to i8*
  call void @llvm.lifetime.start.p0i8(i64 4, i8* nonnull %2) #7
  store i32 0, i32* %1, align 4, !tbaa !5
  %3 = call nonnull align 8 dereferenceable(16) %"class.std::basic_istream"* @_ZNSirsERi(%"class.std::basic_istream"* nonnull align 8 dereferenceable(16) @_ZSt3cin, i32* nonnull align 4 dereferenceable(4) %1)
  %4 = load i32, i32* %1, align 4, !tbaa !5
  %5 = icmp eq i32 %4, 1
  br i1 %5, label %83, label %6

6:                                                ; preds = %0, %78
  %7 = phi i32 [ %81, %78 ], [ %4, %0 ]
  %8 = and i32 %7, 1
  %9 = icmp eq i32 %8, 0
  %10 = call nonnull align 8 dereferenceable(8) %"class.std::basic_ostream"* @_ZNSolsEi(%"class.std::basic_ostream"* nonnull align 8 dereferenceable(8) @_ZSt4cout, i32 %7)
  br i1 %9, label %11, label %44

11:                                               ; preds = %6
  %12 = call nonnull align 8 dereferenceable(8) %"class.std::basic_ostream"* @_ZSt16__ostream_insertIcSt11char_traitsIcEERSt13basic_ostreamIT_T0_ES6_PKS3_l(%"class.std::basic_ostream"* nonnull align 8 dereferenceable(8) %10, i8* nonnull getelementptr inbounds ([4 x i8], [4 x i8]* @.str, i64 0, i64 0), i64 3)
  %13 = load i32, i32* %1, align 4, !tbaa !5
  %14 = sdiv i32 %13, 2
  store i32 %14, i32* %1, align 4, !tbaa !5
  %15 = call nonnull align 8 dereferenceable(8) %"class.std::basic_ostream"* @_ZNSolsEi(%"class.std::basic_ostream"* nonnull align 8 dereferenceable(8) @_ZSt4cout, i32 %14)
  %16 = bitcast %"class.std::basic_ostream"* %15 to i8**
  %17 = load i8*, i8** %16, align 8, !tbaa !9
  %18 = getelementptr i8, i8* %17, i64 -24
  %19 = bitcast i8* %18 to i64*
  %20 = load i64, i64* %19, align 8
  %21 = bitcast %"class.std::basic_ostream"* %15 to i8*
  %22 = add nsw i64 %20, 240
  %23 = getelementptr inbounds i8, i8* %21, i64 %22
  %24 = bitcast i8* %23 to %"class.std::ctype"**
  %25 = load %"class.std::ctype"*, %"class.std::ctype"** %24, align 8, !tbaa !11
  %26 = icmp eq %"class.std::ctype"* %25, null
  br i1 %26, label %27, label %28

27:                                               ; preds = %11
  call void @_ZSt16__throw_bad_castv() #8
  unreachable

28:                                               ; preds = %11
  %29 = getelementptr inbounds %"class.std::ctype", %"class.std::ctype"* %25, i64 0, i32 8
  %30 = load i8, i8* %29, align 8, !tbaa !15
  %31 = icmp eq i8 %30, 0
  br i1 %31, label %35, label %32

32:                                               ; preds = %28
  %33 = getelementptr inbounds %"class.std::ctype", %"class.std::ctype"* %25, i64 0, i32 9, i64 10
  %34 = load i8, i8* %33, align 1, !tbaa !17
  br label %41

35:                                               ; preds = %28
  call void @_ZNKSt5ctypeIcE13_M_widen_initEv(%"class.std::ctype"* nonnull align 8 dereferenceable(570) %25)
  %36 = bitcast %"class.std::ctype"* %25 to i8 (%"class.std::ctype"*, i8)***
  %37 = load i8 (%"class.std::ctype"*, i8)**, i8 (%"class.std::ctype"*, i8)*** %36, align 8, !tbaa !9
  %38 = getelementptr inbounds i8 (%"class.std::ctype"*, i8)*, i8 (%"class.std::ctype"*, i8)** %37, i64 6
  %39 = load i8 (%"class.std::ctype"*, i8)*, i8 (%"class.std::ctype"*, i8)** %38, align 8
  %40 = call signext i8 %39(%"class.std::ctype"* nonnull align 8 dereferenceable(570) %25, i8 signext 10)
  br label %41

41:                                               ; preds = %32, %35
  %42 = phi i8 [ %34, %32 ], [ %40, %35 ]
  %43 = call nonnull align 8 dereferenceable(8) %"class.std::basic_ostream"* @_ZNSo3putEc(%"class.std::basic_ostream"* nonnull align 8 dereferenceable(8) %15, i8 signext %42)
  br label %78

44:                                               ; preds = %6
  %45 = call nonnull align 8 dereferenceable(8) %"class.std::basic_ostream"* @_ZSt16__ostream_insertIcSt11char_traitsIcEERSt13basic_ostreamIT_T0_ES6_PKS3_l(%"class.std::basic_ostream"* nonnull align 8 dereferenceable(8) %10, i8* nonnull getelementptr inbounds ([6 x i8], [6 x i8]* @.str.1, i64 0, i64 0), i64 5)
  %46 = load i32, i32* %1, align 4, !tbaa !5
  %47 = mul nsw i32 %46, 3
  %48 = add nsw i32 %47, 1
  store i32 %48, i32* %1, align 4, !tbaa !5
  %49 = call nonnull align 8 dereferenceable(8) %"class.std::basic_ostream"* @_ZNSolsEi(%"class.std::basic_ostream"* nonnull align 8 dereferenceable(8) @_ZSt4cout, i32 %48)
  %50 = bitcast %"class.std::basic_ostream"* %49 to i8**
  %51 = load i8*, i8** %50, align 8, !tbaa !9
  %52 = getelementptr i8, i8* %51, i64 -24
  %53 = bitcast i8* %52 to i64*
  %54 = load i64, i64* %53, align 8
  %55 = bitcast %"class.std::basic_ostream"* %49 to i8*
  %56 = add nsw i64 %54, 240
  %57 = getelementptr inbounds i8, i8* %55, i64 %56
  %58 = bitcast i8* %57 to %"class.std::ctype"**
  %59 = load %"class.std::ctype"*, %"class.std::ctype"** %58, align 8, !tbaa !11
  %60 = icmp eq %"class.std::ctype"* %59, null
  br i1 %60, label %61, label %62

61:                                               ; preds = %44
  call void @_ZSt16__throw_bad_castv() #8
  unreachable

62:                                               ; preds = %44
  %63 = getelementptr inbounds %"class.std::ctype", %"class.std::ctype"* %59, i64 0, i32 8
  %64 = load i8, i8* %63, align 8, !tbaa !15
  %65 = icmp eq i8 %64, 0
  br i1 %65, label %69, label %66

66:                                               ; preds = %62
  %67 = getelementptr inbounds %"class.std::ctype", %"class.std::ctype"* %59, i64 0, i32 9, i64 10
  %68 = load i8, i8* %67, align 1, !tbaa !17
  br label %75

69:                                               ; preds = %62
  call void @_ZNKSt5ctypeIcE13_M_widen_initEv(%"class.std::ctype"* nonnull align 8 dereferenceable(570) %59)
  %70 = bitcast %"class.std::ctype"* %59 to i8 (%"class.std::ctype"*, i8)***
  %71 = load i8 (%"class.std::ctype"*, i8)**, i8 (%"class.std::ctype"*, i8)*** %70, align 8, !tbaa !9
  %72 = getelementptr inbounds i8 (%"class.std::ctype"*, i8)*, i8 (%"class.std::ctype"*, i8)** %71, i64 6
  %73 = load i8 (%"class.std::ctype"*, i8)*, i8 (%"class.std::ctype"*, i8)** %72, align 8
  %74 = call signext i8 %73(%"class.std::ctype"* nonnull align 8 dereferenceable(570) %59, i8 signext 10)
  br label %75

75:                                               ; preds = %66, %69
  %76 = phi i8 [ %68, %66 ], [ %74, %69 ]
  %77 = call nonnull align 8 dereferenceable(8) %"class.std::basic_ostream"* @_ZNSo3putEc(%"class.std::basic_ostream"* nonnull align 8 dereferenceable(8) %49, i8 signext %76)
  br label %78

78:                                               ; preds = %75, %41
  %79 = phi %"class.std::basic_ostream"* [ %77, %75 ], [ %43, %41 ]
  %80 = call nonnull align 8 dereferenceable(8) %"class.std::basic_ostream"* @_ZNSo5flushEv(%"class.std::basic_ostream"* nonnull align 8 dereferenceable(8) %79)
  %81 = load i32, i32* %1, align 4, !tbaa !5
  %82 = icmp eq i32 %81, 1
  br i1 %82, label %83, label %6, !llvm.loop !18

83:                                               ; preds = %78, %0
  %84 = call nonnull align 8 dereferenceable(8) %"class.std::basic_ostream"* @_ZSt16__ostream_insertIcSt11char_traitsIcEERSt13basic_ostreamIT_T0_ES6_PKS3_l(%"class.std::basic_ostream"* nonnull align 8 dereferenceable(8) @_ZSt4cout, i8* nonnull getelementptr inbounds ([4 x i8], [4 x i8]* @.str.2, i64 0, i64 0), i64 3)
  %85 = load i8*, i8** bitcast (%"class.std::basic_ostream"* @_ZSt4cout to i8**), align 8, !tbaa !9
  %86 = getelementptr i8, i8* %85, i64 -24
  %87 = bitcast i8* %86 to i64*
  %88 = load i64, i64* %87, align 8
  %89 = add nsw i64 %88, 240
  %90 = getelementptr inbounds i8, i8* bitcast (%"class.std::basic_ostream"* @_ZSt4cout to i8*), i64 %89
  %91 = bitcast i8* %90 to %"class.std::ctype"**
  %92 = load %"class.std::ctype"*, %"class.std::ctype"** %91, align 8, !tbaa !11
  %93 = icmp eq %"class.std::ctype"* %92, null
  br i1 %93, label %94, label %95

94:                                               ; preds = %83
  call void @_ZSt16__throw_bad_castv() #8
  unreachable

95:                                               ; preds = %83
  %96 = getelementptr inbounds %"class.std::ctype", %"class.std::ctype"* %92, i64 0, i32 8
  %97 = load i8, i8* %96, align 8, !tbaa !15
  %98 = icmp eq i8 %97, 0
  br i1 %98, label %102, label %99

99:                                               ; preds = %95
  %100 = getelementptr inbounds %"class.std::ctype", %"class.std::ctype"* %92, i64 0, i32 9, i64 10
  %101 = load i8, i8* %100, align 1, !tbaa !17
  br label %108

102:                                              ; preds = %95
  call void @_ZNKSt5ctypeIcE13_M_widen_initEv(%"class.std::ctype"* nonnull align 8 dereferenceable(570) %92)
  %103 = bitcast %"class.std::ctype"* %92 to i8 (%"class.std::ctype"*, i8)***
  %104 = load i8 (%"class.std::ctype"*, i8)**, i8 (%"class.std::ctype"*, i8)*** %103, align 8, !tbaa !9
  %105 = getelementptr inbounds i8 (%"class.std::ctype"*, i8)*, i8 (%"class.std::ctype"*, i8)** %104, i64 6
  %106 = load i8 (%"class.std::ctype"*, i8)*, i8 (%"class.std::ctype"*, i8)** %105, align 8
  %107 = call signext i8 %106(%"class.std::ctype"* nonnull align 8 dereferenceable(570) %92, i8 signext 10)
  br label %108

108:                                              ; preds = %99, %102
  %109 = phi i8 [ %101, %99 ], [ %107, %102 ]
  %110 = call nonnull align 8 dereferenceable(8) %"class.std::basic_ostream"* @_ZNSo3putEc(%"class.std::basic_ostream"* nonnull align 8 dereferenceable(8) @_ZSt4cout, i8 signext %109)
  %111 = call nonnull align 8 dereferenceable(8) %"class.std::basic_ostream"* @_ZNSo5flushEv(%"class.std::basic_ostream"* nonnull align 8 dereferenceable(8) %110)
  %112 = call i32 @_ZNSi3getEv(%"class.std::basic_istream"* nonnull align 8 dereferenceable(16) @_ZSt3cin)
  %113 = call i32 @_ZNSi3getEv(%"class.std::basic_istream"* nonnull align 8 dereferenceable(16) @_ZSt3cin)
  %114 = call i32 @_ZNSi3getEv(%"class.std::basic_istream"* nonnull align 8 dereferenceable(16) @_ZSt3cin)
  %115 = call i32 @_ZNSi3getEv(%"class.std::basic_istream"* nonnull align 8 dereferenceable(16) @_ZSt3cin)
  %116 = call i32 @_ZNSi3getEv(%"class.std::basic_istream"* nonnull align 8 dereferenceable(16) @_ZSt3cin)
  %117 = call i32 @_ZNSi3getEv(%"class.std::basic_istream"* nonnull align 8 dereferenceable(16) @_ZSt3cin)
  %118 = call i32 @_ZNSi3getEv(%"class.std::basic_istream"* nonnull align 8 dereferenceable(16) @_ZSt3cin)
  call void @llvm.lifetime.end.p0i8(i64 4, i8* nonnull %2) #7
  ret i32 0
}

; Function Attrs: argmemonly mustprogress nofree nosync nounwind willreturn
declare void @llvm.lifetime.start.p0i8(i64 immarg, i8* nocapture) #4

declare nonnull align 8 dereferenceable(16) %"class.std::basic_istream"* @_ZNSirsERi(%"class.std::basic_istream"* nonnull align 8 dereferenceable(16), i32* nonnull align 4 dereferenceable(4)) local_unnamed_addr #0

declare nonnull align 8 dereferenceable(8) %"class.std::basic_ostream"* @_ZNSolsEi(%"class.std::basic_ostream"* nonnull align 8 dereferenceable(8), i32) local_unnamed_addr #0

declare i32 @_ZNSi3getEv(%"class.std::basic_istream"* nonnull align 8 dereferenceable(16)) local_unnamed_addr #0

; Function Attrs: argmemonly mustprogress nofree nosync nounwind willreturn
declare void @llvm.lifetime.end.p0i8(i64 immarg, i8* nocapture) #4

declare nonnull align 8 dereferenceable(8) %"class.std::basic_ostream"* @_ZSt16__ostream_insertIcSt11char_traitsIcEERSt13basic_ostreamIT_T0_ES6_PKS3_l(%"class.std::basic_ostream"* nonnull align 8 dereferenceable(8), i8*, i64) local_unnamed_addr #0

declare nonnull align 8 dereferenceable(8) %"class.std::basic_ostream"* @_ZNSo3putEc(%"class.std::basic_ostream"* nonnull align 8 dereferenceable(8), i8 signext) local_unnamed_addr #0

declare nonnull align 8 dereferenceable(8) %"class.std::basic_ostream"* @_ZNSo5flushEv(%"class.std::basic_ostream"* nonnull align 8 dereferenceable(8)) local_unnamed_addr #0

; Function Attrs: noreturn
declare void @_ZSt16__throw_bad_castv() local_unnamed_addr #5

declare void @_ZNKSt5ctypeIcE13_M_widen_initEv(%"class.std::ctype"* nonnull align 8 dereferenceable(570)) local_unnamed_addr #0

; Function Attrs: sspstrong uwtable
define internal void @_GLOBAL__sub_I_1537.cpp() #6 section ".text.startup" {
  tail call void @_ZNSt8ios_base4InitC1Ev(%"class.std::ios_base::Init"* nonnull align 1 dereferenceable(1) @_ZStL8__ioinit)
  %1 = tail call i32 @__cxa_atexit(void (i8*)* bitcast (void (%"class.std::ios_base::Init"*)* @_ZNSt8ios_base4InitD1Ev to void (i8*)*), i8* getelementptr inbounds (%"class.std::ios_base::Init", %"class.std::ios_base::Init"* @_ZStL8__ioinit, i64 0, i32 0), i8* nonnull @__dso_handle) #7
  ret void
}


!llvm.module.flags = !{!0, !1, !2, !3}
!llvm.ident = !{!4}

!0 = !{i32 1, !"wchar_size", i32 4}
!1 = !{i32 7, !"PIC Level", i32 2}
!2 = !{i32 7, !"PIE Level", i32 2}
!3 = !{i32 7, !"uwtable", i32 1}
!4 = !{!"clang version 13.0.0"}
!5 = !{!6, !6, i64 0}
!6 = !{!"int", !7, i64 0}
!7 = !{!"omnipotent char", !8, i64 0}
!8 = !{!"Simple C++ TBAA"}
!9 = !{!10, !10, i64 0}
!10 = !{!"vtable pointer", !8, i64 0}
!11 = !{!12, !13, i64 240}
!12 = !{!"_ZTSSt9basic_iosIcSt11char_traitsIcEE", !13, i64 216, !7, i64 224, !14, i64 225, !13, i64 232, !13, i64 240, !13, i64 248, !13, i64 256}
!13 = !{!"any pointer", !7, i64 0}
!14 = !{!"bool", !7, i64 0}
!15 = !{!16, !7, i64 56}
!16 = !{!"_ZTSSt5ctypeIcE", !13, i64 16, !14, i64 24, !13, i64 32, !13, i64 40, !13, i64 48, !7, i64 56, !7, i64 57, !7, i64 313, !7, i64 569}
!17 = !{!7, !7, i64 0}
!18 = distinct !{!18, !19}
!19 = !{!"llvm.loop.mustprogress"}
